; Function Attrs: mustprogress uwtable
define dso_local void @_ZN16cmLocalGenerator14AddSharedFlagsERNSt7__cxx1112basic_stringIcSt11char_traitsIcESaIcEEERKS5_b(ptr noundef nonnull align 8 dereferenceable(824) %0, ptr noundef nonnull align 8 dereferenceable(32) %1, ptr noundef nonnull align 8 dereferenceable(32) %2, i1 noundef zeroext %3) local_unnamed_addr #3 align 2 personality ptr @__gxx_personality_v0 {
  %5 = alloca [3 x %"struct.std::pair.1080"], align 8
  %6 = alloca %"class.std::__cxx11::basic_string", align 8
  %7 = alloca %"class.std::__cxx11::basic_string", align 8
  call void @_ZNSt7__cxx1112basic_stringIcSt11char_traitsIcESaIcEEC1Ev(ptr noundef nonnull align 8 dereferenceable(32) %6) #23
  br i1 %3, label %8, label %30

8:                                                ; preds = %4
  %9 = getelementptr inbounds i8, ptr %0, i64 112
  %10 = load ptr, ptr %9, align 8
  call void @llvm.lifetime.start.p0(i64 72, ptr nonnull %5)
  store i64 21, ptr %5, align 8, !alias.scope !683, !noalias !686
  %.sroa.2.0..sroa_idx.i.i = getelementptr inbounds i8, ptr %5, i64 8
  store ptr @.str.206, ptr %.sroa.2.0..sroa_idx.i.i, align 8, !alias.scope !683, !noalias !686
  %11 = getelementptr inbounds i8, ptr %5, i64 16
  store ptr null, ptr %11, align 8, !alias.scope !683, !noalias !686
  %12 = getelementptr inbounds i8, ptr %5, i64 24
  %13 = call { i64, ptr } @_ZNKSt7__cxx1112basic_stringIcSt11char_traitsIcESaIcEEcvSt17basic_string_viewIcS2_EEv(ptr noundef nonnull align 8 dereferenceable(32) %2) #23, !noalias !686
  %14 = extractvalue { i64, ptr } %13, 0
  %15 = extractvalue { i64, ptr } %13, 1
  store i64 %14, ptr %12, align 8, !alias.scope !689, !noalias !686
  %.sroa.2.0..sroa_idx.i7.i = getelementptr inbounds i8, ptr %5, i64 32
  store ptr %15, ptr %.sroa.2.0..sroa_idx.i7.i, align 8, !alias.scope !689, !noalias !686
  %16 = getelementptr inbounds i8, ptr %5, i64 40
  store ptr null, ptr %16, align 8, !alias.scope !689, !noalias !686
  %17 = getelementptr inbounds i8, ptr %5, i64 48
  store i64 6, ptr %17, align 8, !alias.scope !692, !noalias !686
  %.sroa.2.0..sroa_idx.i16.i = getelementptr inbounds i8, ptr %5, i64 56
  store ptr @.str.143, ptr %.sroa.2.0..sroa_idx.i16.i, align 8, !alias.scope !692, !noalias !686
  %18 = getelementptr inbounds i8, ptr %5, i64 64
  store ptr null, ptr %18, align 8, !alias.scope !692, !noalias !686
  invoke void @_Z10cmCatViewsSt16initializer_listISt4pairISt17basic_string_viewIcSt11char_traitsIcEEPNSt7__cxx1112basic_stringIcS3_SaIcEEEEE(ptr dead_on_unwind nonnull writable sret(%"class.std::__cxx11::basic_string") align 8 %7, ptr nonnull %5, i64 3)
          to label %19 unwind label %26

19:                                               ; preds = %8
  call void @llvm.lifetime.end.p0(i64 72, ptr nonnull %5)
  %20 = invoke noundef nonnull align 8 dereferenceable(32) ptr @_ZNK10cmMakefile17GetSafeDefinitionERKNSt7__cxx1112basic_stringIcSt11char_traitsIcESaIcEEE(ptr noundef nonnull align 8 dereferenceable(3520) %10, ptr noundef nonnull align 8 dereferenceable(32) %7)
          to label %21 unwind label %28

21:                                               ; preds = %19
  %22 = load ptr, ptr %0, align 8
  %23 = getelementptr inbounds i8, ptr %22, i64 56
  %24 = load ptr, ptr %23, align 8
  invoke void %24(ptr noundef nonnull align 8 dereferenceable(824) %0, ptr noundef nonnull align 8 dereferenceable(32) %1, ptr noundef nonnull align 8 dereferenceable(32) %20)
          to label %25 unwind label %28

25:                                               ; preds = %21
  call void @_ZNSt7__cxx1112basic_stringIcSt11char_traitsIcESaIcEED1Ev(ptr noundef nonnull align 8 dereferenceable(32) %7) #23
  br label %30

26:                                               ; preds = %8
  %27 = landingpad { ptr, i32 }
          cleanup
  br label %31

28:                                               ; preds = %21, %19
  %29 = landingpad { ptr, i32 }
          cleanup
  call void @_ZNSt7__cxx1112basic_stringIcSt11char_traitsIcESaIcEED1Ev(ptr noundef nonnull align 8 dereferenceable(32) %7) #23
  br label %31

30:                                               ; preds = %25, %4
  call void @_ZNSt7__cxx1112basic_stringIcSt11char_traitsIcESaIcEED1Ev(ptr noundef nonnull align 8 dereferenceable(32) %6) #23
  ret void

31:                                               ; preds = %28, %26
  %.pn = phi { ptr, i32 } [ %29, %28 ], [ %27, %26 ]
  call void @_ZNSt7__cxx1112basic_stringIcSt11char_traitsIcESaIcEED1Ev(ptr noundef nonnull align 8 dereferenceable(32) %6) #23
  resume { ptr, i32 } %.pn
}